target datalayout = "e-m:e-p270:32:32-p271:32:32-p272:64:64-i64:64-i128:128-f80:128-n8:16:32:64-S128"
target triple = "x86_64-pc-linux-gnu"

%class.State = type { [315 x i32], [315 x i16], i32, ptr, [2 x ptr] }

@_ZN19Abstract_VM_Version27_data_cache_line_flush_sizeE = external global i32, align 4

; Function Attrs: mustprogress nounwind uwtable
define linkonce_odr hidden noundef zeroext i1 @_ZN19Abstract_VM_Version30supports_data_cache_line_flushEv() #1 comdat align 2 {
  %1 = load i32, ptr @_ZN19Abstract_VM_Version27_data_cache_line_flush_sizeE, align 4
  %2 = icmp ne i32 %1, 0
  ret i1 %2
}

; Function Attrs: mustprogress nounwind uwtable
define hidden void @_ZN5State23_sub_Op_CacheWBPostSyncEPK4Node(ptr noundef nonnull align 8 dereferenceable(1920) %0, ptr noundef %1) #1 align 2 {
  %3 = alloca ptr, align 8
  %4 = alloca ptr, align 8
  %5 = alloca i32, align 4
  store ptr %0, ptr %3, align 8
  store ptr %1, ptr %4, align 8
  %6 = load ptr, ptr %3, align 8
  %7 = call noundef zeroext i1 @_ZN19Abstract_VM_Version30supports_data_cache_line_flushEv()
  br i1 %7, label %8, label %14

8:                                                ; preds = %2
  store i32 100, ptr %5, align 4
  %9 = load i32, ptr %5, align 4
  %10 = getelementptr inbounds %class.State, ptr %6, i32 0, i32 0
  %11 = getelementptr inbounds [315 x i32], ptr %10, i64 0, i64 0
  store i32 %9, ptr %11, align 8
  %12 = getelementptr inbounds %class.State, ptr %6, i32 0, i32 1
  %13 = getelementptr inbounds [315 x i16], ptr %12, i64 0, i64 0
  store i16 1245, ptr %13, align 4
  br label %14

14:                                               ; preds = %8, %2
  ret void
}