; Function Attrs: mustprogress nofree norecurse nosync nounwind willreturn memory(read, argmem: write, inaccessiblemem: none) uwtable
define hidden void @_ZN5State23_sub_Op_CacheWBPostSyncEPK4Node(ptr nocapture noundef nonnull writeonly align 8 dereferenceable(1920) %0, ptr nocapture noundef readnone %1) local_unnamed_addr #4 align 2 {
  %3 = load i32, ptr @_ZN19Abstract_VM_Version27_data_cache_line_flush_sizeE, align 4
  %.not = icmp eq i32 %3, 0
  br i1 %.not, label %6, label %4

4:                                                ; preds = %2
  store i32 100, ptr %0, align 8
  %5 = getelementptr inbounds i8, ptr %0, i64 1260
  store i16 1245, ptr %5, align 4
  br label %6

6:                                                ; preds = %4, %2
  ret void
}